; Function Attrs: mustprogress nounwind uwtable
define hidden void @_ZN8ValueMap10kill_fieldEP7ciFieldb(ptr nocapture noundef nonnull align 8 dereferenceable(52) %0, ptr nocapture noundef readonly %1, i1 noundef zeroext %2) local_unnamed_addr #0 align 2 {
  %4 = getelementptr inbounds i8, ptr %0, i64 8
  %5 = load i32, ptr %4, align 8
  %6 = icmp sgt i32 %5, 0
  br i1 %6, label %.lr.ph34, label %._crit_edge

.lr.ph34:                                         ; preds = %3
  %7 = getelementptr inbounds i8, ptr %0, i64 16
  %8 = getelementptr inbounds i8, ptr %1, i64 8
  %9 = getelementptr inbounds i8, ptr %1, i64 40
  %10 = getelementptr inbounds i8, ptr %0, i64 32
  %11 = getelementptr inbounds i8, ptr %0, i64 48
  %12 = zext nneg i32 %5 to i64
  br label %14

.loopexit:                                        ; preds = %.critedge, %14
  %13 = icmp sgt i64 %indvars.iv, 1
  br i1 %13, label %14, label %._crit_edge, !llvm.loop !17

14:                                               ; preds = %.lr.ph34, %.loopexit
  %indvars.iv = phi i64 [ %12, %.lr.ph34 ], [ %indvars.iv.next, %.loopexit ]
  %indvars.iv.next = add nsw i64 %indvars.iv, -1
  %15 = load ptr, ptr %7, align 8
  %16 = getelementptr inbounds ptr, ptr %15, i64 %indvars.iv.next
  %.02428 = load ptr, ptr %16, align 8
  %.not29 = icmp eq ptr %.02428, null
  br i1 %.not29, label %.loopexit, label %.lr.ph

.lr.ph:                                           ; preds = %14, %.critedge
  %.02431 = phi ptr [ %.024, %.critedge ], [ %.02428, %14 ]
  %.02330 = phi ptr [ %.1, %.critedge ], [ null, %14 ]
  %17 = getelementptr inbounds i8, ptr %.02431, i64 8
  %18 = load ptr, ptr %17, align 8
  %19 = load ptr, ptr %18, align 8
  %20 = getelementptr inbounds i8, ptr %19, i64 48
  %21 = load ptr, ptr %20, align 8
  %22 = tail call noundef ptr %21(ptr noundef nonnull align 8 dereferenceable(96) %18) #6
  %.not26 = icmp eq ptr %22, null
  br i1 %.not26, label %.critedge, label %23

23:                                               ; preds = %.lr.ph
  %24 = getelementptr inbounds i8, ptr %22, i64 112
  %25 = load ptr, ptr %24, align 8
  %26 = getelementptr inbounds i8, ptr %25, i64 8
  %27 = load ptr, ptr %26, align 8
  %28 = load ptr, ptr %8, align 8
  %29 = icmp ne ptr %27, %28
  %brmerge = or i1 %29, %2
  br i1 %brmerge, label %35, label %30

30:                                               ; preds = %23
  %31 = getelementptr inbounds i8, ptr %25, i64 40
  %32 = load i32, ptr %31, align 8
  %33 = load i32, ptr %9, align 8
  %34 = icmp eq i32 %32, %33
  br i1 %34, label %36, label %.critedge

35:                                               ; preds = %23
  br i1 %29, label %.critedge, label %36

36:                                               ; preds = %30, %35
  %37 = load i32, ptr %0, align 8
  %38 = icmp sgt i32 %37, 0
  br i1 %38, label %39, label %_ZN8ValueMap10kill_valueEP11Instruction.exit

39:                                               ; preds = %36
  %40 = getelementptr inbounds i8, ptr %18, i64 8
  %41 = load i32, ptr %40, align 8
  %42 = sext i32 %41 to i64
  %43 = and i64 %42, 63
  %44 = shl nuw i64 1, %43
  %45 = load ptr, ptr %10, align 8
  %46 = lshr i64 %42, 6
  %47 = getelementptr inbounds i64, ptr %45, i64 %46
  %48 = load i64, ptr %47, align 8
  %49 = or i64 %44, %48
  store i64 %49, ptr %47, align 8
  br label %_ZN8ValueMap10kill_valueEP11Instruction.exit

_ZN8ValueMap10kill_valueEP11Instruction.exit:     ; preds = %36, %39
  %50 = icmp eq ptr %.02330, null
  br i1 %50, label %51, label %56

51:                                               ; preds = %_ZN8ValueMap10kill_valueEP11Instruction.exit
  %52 = getelementptr inbounds i8, ptr %.02431, i64 24
  %53 = load ptr, ptr %52, align 8
  %54 = load ptr, ptr %7, align 8
  %55 = getelementptr inbounds ptr, ptr %54, i64 %indvars.iv.next
  store ptr %53, ptr %55, align 8
  br label %.critedge.sink.split

56:                                               ; preds = %_ZN8ValueMap10kill_valueEP11Instruction.exit
  %57 = getelementptr inbounds i8, ptr %.02330, i64 16
  %58 = load i32, ptr %57, align 8
  %59 = load i32, ptr %0, align 8
  %60 = icmp eq i32 %58, %59
  br i1 %60, label %61, label %.critedge

61:                                               ; preds = %56
  %62 = getelementptr inbounds i8, ptr %.02431, i64 24
  %63 = load ptr, ptr %62, align 8
  %64 = getelementptr inbounds i8, ptr %.02330, i64 24
  store ptr %63, ptr %64, align 8
  br label %.critedge.sink.split

.critedge.sink.split:                             ; preds = %51, %61
  %.1.ph = phi ptr [ %.02330, %61 ], [ null, %51 ]
  %65 = load i32, ptr %11, align 8
  %66 = add nsw i32 %65, -1
  store i32 %66, ptr %11, align 8
  br label %.critedge

.critedge:                                        ; preds = %.critedge.sink.split, %30, %35, %.lr.ph, %56
  %.1 = phi ptr [ %.02431, %56 ], [ %.02431, %.lr.ph ], [ %.02431, %35 ], [ %.02431, %30 ], [ %.1.ph, %.critedge.sink.split ]
  %67 = getelementptr inbounds i8, ptr %.02431, i64 24
  %.024 = load ptr, ptr %67, align 8
  %.not = icmp eq ptr %.024, null
  br i1 %.not, label %.loopexit, label %.lr.ph, !llvm.loop !18

._crit_edge:                                      ; preds = %.loopexit, %3
  ret void
}